; ModuleID = 'source-C-CXX/52/1088.c'
source_filename = "source-C-CXX/52/1088.c"
target datalayout = "e-m:e-p270:32:32-p271:32:32-p272:64:64-i64:64-f80:128-n8:16:32:64-S128"
target triple = "x86_64-pc-linux-gnu"

@.str = private unnamed_addr constant [3 x i8] c"%d\00", align 1
@.str.1 = private unnamed_addr constant [4 x i8] c" %d\00", align 1

; Function Attrs: nofree nounwind sspstrong uwtable
define dso_local i32 @main() local_unnamed_addr #0 {
  %1 = alloca i32, align 4
  %2 = alloca [300 x i32], align 16
  %3 = bitcast i32* %1 to i8*
  call void @llvm.lifetime.start.p0i8(i64 4, i8* nonnull %3) #4
  %4 = bitcast [300 x i32]* %2 to i8*
  call void @llvm.lifetime.start.p0i8(i64 1200, i8* nonnull %4) #4
  %5 = call i32 (i8*, ...) @__isoc99_scanf(i8* getelementptr inbounds ([3 x i8], [3 x i8]* @.str, i64 0, i64 0), i32* nonnull %1)
  %6 = getelementptr inbounds [300 x i32], [300 x i32]* %2, i64 0, i64 0
  %7 = call i32 (i8*, ...) @__isoc99_scanf(i8* getelementptr inbounds ([3 x i8], [3 x i8]* @.str, i64 0, i64 0), i32* nonnull %6)
  %8 = load i32, i32* %1, align 4, !tbaa !5
  %9 = icmp sgt i32 %8, 1
  br i1 %9, label %15, label %10

10:                                               ; preds = %15, %0
  %11 = load i32, i32* %6, align 16, !tbaa !5
  %12 = call i32 (i8*, ...) @printf(i8* nonnull dereferenceable(1) getelementptr inbounds ([3 x i8], [3 x i8]* @.str, i64 0, i64 0), i32 %11)
  %13 = load i32, i32* %1, align 4, !tbaa !5
  %14 = icmp sgt i32 %13, 1
  br i1 %14, label %23, label %28

15:                                               ; preds = %0, %15
  %16 = phi i64 [ %19, %15 ], [ 1, %0 ]
  %17 = getelementptr inbounds [300 x i32], [300 x i32]* %2, i64 0, i64 %16
  %18 = call i32 (i8*, ...) @__isoc99_scanf(i8* getelementptr inbounds ([4 x i8], [4 x i8]* @.str.1, i64 0, i64 0), i32* nonnull %17)
  %19 = add nuw nsw i64 %16, 1
  %20 = load i32, i32* %1, align 4, !tbaa !5
  %21 = sext i32 %20 to i64
  %22 = icmp slt i64 %19, %21
  br i1 %22, label %15, label %10, !llvm.loop !9

23:                                               ; preds = %10, %51
  %24 = phi i32 [ %52, %51 ], [ %13, %10 ]
  %25 = phi i64 [ %53, %51 ], [ 1, %10 ]
  %26 = getelementptr inbounds [300 x i32], [300 x i32]* %2, i64 0, i64 %25
  %27 = load i32, i32* %26, align 4, !tbaa !5
  br label %29

28:                                               ; preds = %51, %10
  call void @llvm.lifetime.end.p0i8(i64 1200, i8* nonnull %4) #4
  call void @llvm.lifetime.end.p0i8(i64 4, i8* nonnull %3) #4
  ret i32 0

29:                                               ; preds = %23, %34
  %30 = phi i64 [ 0, %23 ], [ %35, %34 ]
  %31 = getelementptr inbounds [300 x i32], [300 x i32]* %2, i64 0, i64 %30
  %32 = load i32, i32* %31, align 4, !tbaa !5
  %33 = icmp eq i32 %27, %32
  br i1 %33, label %37, label %34

34:                                               ; preds = %29
  %35 = add nuw nsw i64 %30, 1
  %36 = icmp eq i64 %35, %25
  br i1 %36, label %37, label %29, !llvm.loop !11

37:                                               ; preds = %29, %34
  %38 = phi i64 [ %30, %29 ], [ %25, %34 ]
  %39 = add nsw i64 %25, -1
  %40 = getelementptr inbounds [300 x i32], [300 x i32]* %2, i64 0, i64 %39
  %41 = load i32, i32* %40, align 4, !tbaa !5
  %42 = icmp ne i32 %27, %41
  %43 = and i64 %38, 4294967295
  %44 = icmp eq i64 %43, %25
  %45 = select i1 %42, i1 %44, i1 false
  br i1 %45, label %46, label %51

46:                                               ; preds = %37
  %47 = call i32 @putchar(i32 44)
  %48 = load i32, i32* %26, align 4, !tbaa !5
  %49 = call i32 (i8*, ...) @printf(i8* nonnull dereferenceable(1) getelementptr inbounds ([3 x i8], [3 x i8]* @.str, i64 0, i64 0), i32 %48)
  %50 = load i32, i32* %1, align 4, !tbaa !5
  br label %51

51:                                               ; preds = %37, %46
  %52 = phi i32 [ %24, %37 ], [ %50, %46 ]
  %53 = add nuw nsw i64 %25, 1
  %54 = sext i32 %52 to i64
  %55 = icmp slt i64 %53, %54
  br i1 %55, label %23, label %28, !llvm.loop !12
}

; Function Attrs: argmemonly mustprogress nofree nosync nounwind willreturn
declare void @llvm.lifetime.start.p0i8(i64 immarg, i8* nocapture) #1

; Function Attrs: nofree nounwind
declare noundef i32 @__isoc99_scanf(i8* nocapture noundef readonly, ...) local_unnamed_addr #2

; Function Attrs: argmemonly mustprogress nofree nosync nounwind willreturn
declare void @llvm.lifetime.end.p0i8(i64 immarg, i8* nocapture) #1

; Function Attrs: nofree nounwind
declare noundef i32 @printf(i8* nocapture noundef readonly, ...) local_unnamed_addr #2

; Function Attrs: nofree nounwind
declare noundef i32 @putchar(i32 noundef) local_unnamed_addr #3


!llvm.module.flags = !{!0, !1, !2, !3}
!llvm.ident = !{!4}

!0 = !{i32 1, !"wchar_size", i32 4}
!1 = !{i32 7, !"PIC Level", i32 2}
!2 = !{i32 7, !"PIE Level", i32 2}
!3 = !{i32 7, !"uwtable", i32 1}
!4 = !{!"clang version 13.0.0"}
!5 = !{!6, !6, i64 0}
!6 = !{!"int", !7, i64 0}
!7 = !{!"omnipotent char", !8, i64 0}
!8 = !{!"Simple C/C++ TBAA"}
!9 = distinct !{!9, !10}
!10 = !{!"llvm.loop.mustprogress"}
!11 = distinct !{!11, !10}
!12 = distinct !{!12, !10}
